---
triple:          'arm64-apple-darwin'
binary-path:     '/Users/marie/Desktop/Programacion/ProyectoFinalC++/clone/ProyectoFinal_Grupo-C/Programa/output/Ventas-de-Leche'
relocations:
  - { offsetInCU: 0x52, offset: 0x52, size: 0x8, addend: 0x0, symName: _registro_Vacas, symObjAddr: 0x4B6AC, symBinAddr: 0x10001C060, symSize: 0x0 }
  - { offsetInCU: 0xE3, offset: 0xE3, size: 0x8, addend: 0x0, symName: _registro_Clientes, symObjAddr: 0x68B6C, symBinAddr: 0x100039520, symSize: 0x0 }
  - { offsetInCU: 0x156, offset: 0x156, size: 0x8, addend: 0x0, symName: _registro_Ventas, symObjAddr: 0xB465C, symBinAddr: 0x100085010, symSize: 0x0 }
  - { offsetInCU: 0x232, offset: 0x232, size: 0x8, addend: 0x0, symName: _registro_Pendientes, symObjAddr: 0xD78DC, symBinAddr: 0x1000A8290, symSize: 0x0 }
  - { offsetInCU: 0x2A4, offset: 0x2A4, size: 0x8, addend: 0x0, symName: _registro_costos_Fijos, symObjAddr: 0xF8C1C, symBinAddr: 0x1000C95D0, symSize: 0x0 }
  - { offsetInCU: 0x316, offset: 0x316, size: 0x8, addend: 0x0, symName: _registro_costos_Variables, symObjAddr: 0x11801C, symBinAddr: 0x1000E89D0, symSize: 0x0 }
  - { offsetInCU: 0x32B, offset: 0x32B, size: 0x8, addend: 0x0, symName: _meses, symObjAddr: 0x15F70, symBinAddr: 0x10001C000, symSize: 0x0 }
  - { offsetInCU: 0x351, offset: 0x351, size: 0x8, addend: 0x0, symName: _pausar, symObjAddr: 0x13741C, symBinAddr: 0x100107DD0, symSize: 0x0 }
  - { offsetInCU: 0x366, offset: 0x366, size: 0x8, addend: 0x0, symName: _precio_galon, symObjAddr: 0x137420, symBinAddr: 0x100107DD4, symSize: 0x0 }
  - { offsetInCU: 0x37B, offset: 0x37B, size: 0x8, addend: 0x0, symName: _num_vacas, symObjAddr: 0x137424, symBinAddr: 0x100107DD8, symSize: 0x0 }
  - { offsetInCU: 0x390, offset: 0x390, size: 0x8, addend: 0x0, symName: _num_clientes, symObjAddr: 0x137428, symBinAddr: 0x100107DDC, symSize: 0x0 }
  - { offsetInCU: 0x3A5, offset: 0x3A5, size: 0x8, addend: 0x0, symName: _num_ventas, symObjAddr: 0x13742C, symBinAddr: 0x100107DE0, symSize: 0x0 }
  - { offsetInCU: 0x3BA, offset: 0x3BA, size: 0x8, addend: 0x0, symName: _num_pendientes, symObjAddr: 0x137430, symBinAddr: 0x100107DE4, symSize: 0x0 }
  - { offsetInCU: 0x3CF, offset: 0x3CF, size: 0x8, addend: 0x0, symName: _num_costos_Fijos, symObjAddr: 0x137434, symBinAddr: 0x100107DE8, symSize: 0x0 }
  - { offsetInCU: 0x3E4, offset: 0x3E4, size: 0x8, addend: 0x0, symName: _num_costos_Variables, symObjAddr: 0x137438, symBinAddr: 0x100107DEC, symSize: 0x0 }
  - { offsetInCU: 0x3F9, offset: 0x3F9, size: 0x8, addend: 0x0, symName: _ingresos_totales, symObjAddr: 0x13743C, symBinAddr: 0x100107DF0, symSize: 0x0 }
  - { offsetInCU: 0x40E, offset: 0x40E, size: 0x8, addend: 0x0, symName: _costos_totales, symObjAddr: 0x137440, symBinAddr: 0x100107DF4, symSize: 0x0 }
  - { offsetInCU: 0x423, offset: 0x423, size: 0x8, addend: 0x0, symName: _utilidad, symObjAddr: 0x137444, symBinAddr: 0x100107DF8, symSize: 0x0 }
  - { offsetInCU: 0x438, offset: 0x438, size: 0x8, addend: 0x0, symName: _produccion_total, symObjAddr: 0x137448, symBinAddr: 0x100107DFC, symSize: 0x0 }
  - { offsetInCU: 0x5BB, offset: 0x5BB, size: 0x8, addend: 0x0, symName: __ZN3LLC7_colSETENS_6COLORSE, symObjAddr: 0x0, symBinAddr: 0x10000190C, symSize: 0x38 }
  - { offsetInCU: 0x5E3, offset: 0x5E3, size: 0x8, addend: 0x0, symName: __ZN3LLC9_colRESETEv, symObjAddr: 0x38, symBinAddr: 0x100001944, symSize: 0x18 }
  - { offsetInCU: 0x5FC, offset: 0x5FC, size: 0x8, addend: 0x0, symName: __ZN3LLC9_stateSETENS_6STATESE, symObjAddr: 0x50, symBinAddr: 0x10000195C, symSize: 0x38 }
  - { offsetInCU: 0x624, offset: 0x624, size: 0x8, addend: 0x0, symName: __ZN3LLC11_stateRESETEv, symObjAddr: 0x88, symBinAddr: 0x100001994, symSize: 0x70 }
  - { offsetInCU: 0x63D, offset: 0x63D, size: 0x8, addend: 0x0, symName: __ZN3LLC14_backgroundSETENS_11BACKGROUNDSE, symObjAddr: 0x140, symBinAddr: 0x100001A4C, symSize: 0x38 }
  - { offsetInCU: 0x665, offset: 0x665, size: 0x8, addend: 0x0, symName: __ZN3LLC16_backgroundRESETEv, symObjAddr: 0x178, symBinAddr: 0x100001A84, symSize: 0x24 }
  - { offsetInCU: 0x67E, offset: 0x67E, size: 0x8, addend: 0x0, symName: __ZN3LLC9_csbRESETEv, symObjAddr: 0x19C, symBinAddr: 0x100001AA8, symSize: 0x1C }
  - { offsetInCU: 0x697, offset: 0x697, size: 0x8, addend: 0x0, symName: __ZN3LLC5_cTAGENS_6COLORSE, symObjAddr: 0x1B8, symBinAddr: 0x100001AC4, symSize: 0xC0 }
  - { offsetInCU: 0x6C3, offset: 0x6C3, size: 0x8, addend: 0x0, symName: __ZN3LLC5_cTAGENS_6STATESE, symObjAddr: 0x3A0, symBinAddr: 0x100001CAC, symSize: 0xC0 }
  - { offsetInCU: 0x6EF, offset: 0x6EF, size: 0x8, addend: 0x0, symName: __ZN3LLC5_cTAGENS_11BACKGROUNDSE, symObjAddr: 0x460, symBinAddr: 0x100001D6C, symSize: 0xC0 }
  - { offsetInCU: 0x71B, offset: 0x71B, size: 0x8, addend: 0x0, symName: __ZN3LLC5_rTAGENS_11RESET_TYPESE, symObjAddr: 0x520, symBinAddr: 0x100001E2C, symSize: 0x1A0 }
  - { offsetInCU: 0x756, offset: 0x756, size: 0x8, addend: 0x0, symName: __ZN3LLC7_colSETEiii, symObjAddr: 0x720, symBinAddr: 0x10000202C, symSize: 0x58 }
  - { offsetInCU: 0x79A, offset: 0x79A, size: 0x8, addend: 0x0, symName: __ZN3LLC14_backgroundSETEiii, symObjAddr: 0x778, symBinAddr: 0x100002084, symSize: 0x58 }
  - { offsetInCU: 0x4014, offset: 0x4014, size: 0x8, addend: 0x0, symName: __ZNSt3__16chronogtB8ue170006IxNS_5ratioILl1ELl1000EEExS3_EEbRKNS0_8durationIT_T0_EERKNS4_IT1_T2_EE, symObjAddr: 0x102F0, symBinAddr: 0x100011BFC, symSize: 0x30 }
  - { offsetInCU: 0x4075, offset: 0x4075, size: 0x8, addend: 0x0, symName: __ZNSt3__16chronoltB8ue170006IxNS_5ratioILl1ELl1000EEEeNS2_ILl1ELl1EEEEEbRKNS0_8durationIT_T0_EERKNS5_IT1_T2_EE, symObjAddr: 0x103D8, symBinAddr: 0x100011CE4, symSize: 0x34 }
  - { offsetInCU: 0x40D6, offset: 0x40D6, size: 0x8, addend: 0x0, symName: __ZNSt3__16chrono13duration_castB8ue170006INS0_8durationIxNS_5ratioILl1ELl1000000000EEEEExNS3_ILl1ELl1000EEEEENS_9enable_ifIXsr13__is_durationIT_EE5valueES8_E4typeERKNS2_IT0_T1_EE, symObjAddr: 0x1040C, symBinAddr: 0x100011D18, symSize: 0x30 }
  - { offsetInCU: 0x411D, offset: 0x411D, size: 0x8, addend: 0x0, symName: __ZNSt3__16chronoltB8ue170006IxNS_5ratioILl1ELl1000000000EEExNS2_ILl1ELl1000EEEEEbRKNS0_8durationIT_T0_EERKNS5_IT1_T2_EE, symObjAddr: 0x1043C, symBinAddr: 0x100011D48, symSize: 0x34 }
  - { offsetInCU: 0x417E, offset: 0x417E, size: 0x8, addend: 0x0, symName: __ZNSt3__16chronoltB8ue170006IxNS_5ratioILl1ELl1000EEExS3_EEbRKNS0_8durationIT_T0_EERKNS4_IT1_T2_EE, symObjAddr: 0x104E0, symBinAddr: 0x100011DEC, symSize: 0x34 }
  - { offsetInCU: 0x425C, offset: 0x425C, size: 0x8, addend: 0x0, symName: __ZNSt3__16chrono13duration_castB8ue170006INS0_8durationIeNS_5ratioILl1ELl1000EEEEExS4_EENS_9enable_ifIXsr13__is_durationIT_EE5valueES7_E4typeERKNS2_IT0_T1_EE, symObjAddr: 0x10770, symBinAddr: 0x10001207C, symSize: 0x30 }
  - { offsetInCU: 0x42EE, offset: 0x42EE, size: 0x8, addend: 0x0, symName: __ZNSt3__16chrono13duration_castB8ue170006INS0_8durationIeNS_5ratioILl1ELl1000EEEEEeNS3_ILl1ELl1EEEEENS_9enable_ifIXsr13__is_durationIT_EE5valueES8_E4typeERKNS2_IT0_T1_EE, symObjAddr: 0x10890, symBinAddr: 0x10001219C, symSize: 0x30 }
  - { offsetInCU: 0x43D8, offset: 0x43D8, size: 0x8, addend: 0x0, symName: __ZNSt3__124__put_character_sequenceB8ue170006IcNS_11char_traitsIcEEEERNS_13basic_ostreamIT_T0_EES7_PKS4_m, symObjAddr: 0xDEE4, symBinAddr: 0x10000F7F0, symSize: 0x1F4 }
  - { offsetInCU: 0x52C6, offset: 0x52C6, size: 0x8, addend: 0x0, symName: __ZNSt3__16copy_nB8ue170006IPKcmPcEENS_9enable_ifIXsr37__has_random_access_iterator_categoryIT_EE5valueET1_E4typeES5_T0_S6_, symObjAddr: 0xF520, symBinAddr: 0x100010E2C, symSize: 0x44 }
  - { offsetInCU: 0x6822, offset: 0x6822, size: 0x8, addend: 0x0, symName: __ZNSt3__1lsB8ue170006INS_11char_traitsIcEEEERNS_13basic_ostreamIcT_EES6_PKc, symObjAddr: 0xF8, symBinAddr: 0x100001A04, symSize: 0x48 }
  - { offsetInCU: 0x6868, offset: 0x6868, size: 0x8, addend: 0x0, symName: __ZNSt3__1plB8ue170006IcNS_11char_traitsIcEENS_9allocatorIcEEEENS_12basic_stringIT_T0_T1_EERKS9_PKS6_, symObjAddr: 0x278, symBinAddr: 0x100001B84, symSize: 0x11C }
  - { offsetInCU: 0x6909, offset: 0x6909, size: 0x8, addend: 0x0, symName: __ZNSt3__14endlB8ue170006IcNS_11char_traitsIcEEEERNS_13basic_ostreamIT_T0_EES7_, symObjAddr: 0x8F0, symBinAddr: 0x1000021FC, symSize: 0x58 }
  - { offsetInCU: 0x6ED4, offset: 0x6ED4, size: 0x8, addend: 0x0, symName: __ZNSt3__1rsB8ue170006IcNS_11char_traitsIcEEEERNS_13basic_istreamIT_T0_EES7_PS4_, symObjAddr: 0x175C, symBinAddr: 0x100003068, symSize: 0x74 }
  - { offsetInCU: 0x6F37, offset: 0x6F37, size: 0x8, addend: 0x0, symName: __ZNSt3__111this_thread9sleep_forB8ue170006IxNS_5ratioILl1ELl1000EEEEEvRKNS_6chrono8durationIT_T0_EE, symObjAddr: 0x1874, symBinAddr: 0x100003180, symSize: 0xD8 }
  - { offsetInCU: 0x79E5, offset: 0x79E5, size: 0x8, addend: 0x0, symName: __ZNSt3__116__pad_and_outputB8ue170006IcNS_11char_traitsIcEEEENS_19ostreambuf_iteratorIT_T0_EES6_PKS4_S8_S8_RNS_8ios_baseES4_, symObjAddr: 0xE13C, symBinAddr: 0x10000FA48, symSize: 0x248 }
  - { offsetInCU: 0x7AB4, offset: 0x7AB4, size: 0x8, addend: 0x0, symName: __ZNSt3__112__to_addressB8ue170006IKcEEPT_S3_, symObjAddr: 0xE6AC, symBinAddr: 0x10000FFB8, symSize: 0x14 }
  - { offsetInCU: 0x7AE9, offset: 0x7AE9, size: 0x8, addend: 0x0, symName: __ZNSt3__130__libcpp_is_constant_evaluatedB8ue170006Ev, symObjAddr: 0xE7D8, symBinAddr: 0x1000100E4, symSize: 0xC }
  - { offsetInCU: 0x7B39, offset: 0x7B39, size: 0x8, addend: 0x0, symName: __ZNSt3__19use_facetB8ue170006INS_5ctypeIcEEEERKT_RKNS_6localeE, symObjAddr: 0xE988, symBinAddr: 0x100010294, symSize: 0x2C }
  - { offsetInCU: 0x7F17, offset: 0x7F17, size: 0x8, addend: 0x0, symName: __ZNSt3__118__constexpr_strlenB8ue170006EPKc, symObjAddr: 0xEA20, symBinAddr: 0x10001032C, symSize: 0x24 }
  - { offsetInCU: 0x7F43, offset: 0x7F43, size: 0x8, addend: 0x0, symName: __ZNSt3__112__to_addressB8ue170006IcEEPT_S2_, symObjAddr: 0xEB08, symBinAddr: 0x100010414, symSize: 0x14 }
  - { offsetInCU: 0x817A, offset: 0x817A, size: 0x8, addend: 0x0, symName: __ZNSt3__120__throw_length_errorB8ue170006EPKc, symObjAddr: 0xF26C, symBinAddr: 0x100010B78, symSize: 0x64 }
  - { offsetInCU: 0x81A4, offset: 0x81A4, size: 0x8, addend: 0x0, symName: __ZNSt3__117__libcpp_allocateB8ue170006Emm, symObjAddr: 0xF438, symBinAddr: 0x100010D44, symSize: 0x28 }
  - { offsetInCU: 0x81E1, offset: 0x81E1, size: 0x8, addend: 0x0, symName: __ZNSt3__121__libcpp_operator_newB8ue170006IJmEEEPvDpT_, symObjAddr: 0xF460, symBinAddr: 0x100010D6C, symSize: 0x24 }
  - { offsetInCU: 0x824D, offset: 0x824D, size: 0x8, addend: 0x0, symName: __ZNSt3__14copyB8ue170006IPKcPcEET0_T_S5_S4_, symObjAddr: 0xF564, symBinAddr: 0x100010E70, symSize: 0x40 }
  - { offsetInCU: 0x82A7, offset: 0x82A7, size: 0x8, addend: 0x0, symName: __ZNSt3__16__copyB8ue170006INS_17_ClassicAlgPolicyEPKcS3_PcEENS_4pairIT0_T2_EES6_T1_S7_, symObjAddr: 0xF5A4, symBinAddr: 0x100010EB0, symSize: 0x44 }
  - { offsetInCU: 0x8313, offset: 0x8313, size: 0x8, addend: 0x0, symName: __ZNSt3__123__dispatch_copy_or_moveB8ue170006INS_17_ClassicAlgPolicyENS_11__copy_loopIS1_EENS_14__copy_trivialEPKcS6_PcEENS_4pairIT2_T4_EES9_T3_SA_, symObjAddr: 0xF5E8, symBinAddr: 0x100010EF4, symSize: 0x44 }
  - { offsetInCU: 0x8391, offset: 0x8391, size: 0x8, addend: 0x0, symName: __ZNSt3__121__unwrap_and_dispatchB8ue170006INS_10__overloadINS_11__copy_loopINS_17_ClassicAlgPolicyEEENS_14__copy_trivialEEEPKcS8_PcLi0EEENS_4pairIT0_T2_EESB_T1_SC_, symObjAddr: 0xF62C, symBinAddr: 0x100010F38, symSize: 0xB4 }
  - { offsetInCU: 0x841F, offset: 0x841F, size: 0x8, addend: 0x0, symName: __ZNSt3__114__unwrap_rangeB8ue170006IPKcS2_EENS_4pairIT0_S4_EET_S6_, symObjAddr: 0xF6E0, symBinAddr: 0x100010FEC, symSize: 0x60 }
  - { offsetInCU: 0x855E, offset: 0x855E, size: 0x8, addend: 0x0, symName: __ZNSt3__113__unwrap_iterB8ue170006IPcNS_18__unwrap_iter_implIS1_Lb1EEELi0EEEDTclsrT0_8__unwrapclsr3stdE7declvalIT_EEEES5_, symObjAddr: 0xF788, symBinAddr: 0x100011094, symSize: 0x24 }
  - { offsetInCU: 0x85A2, offset: 0x85A2, size: 0x8, addend: 0x0, symName: __ZNSt3__19make_pairB8ue170006IPKcPcEENS_4pairINS_18__unwrap_ref_decayIT_E4typeENS5_IT0_E4typeEEEOS6_OS9_, symObjAddr: 0xF7AC, symBinAddr: 0x1000110B8, symSize: 0x38 }
  - { offsetInCU: 0x85F1, offset: 0x85F1, size: 0x8, addend: 0x0, symName: __ZNSt3__114__rewrap_rangeB8ue170006IPKcS2_EET_S3_T0_, symObjAddr: 0xF7E4, symBinAddr: 0x1000110F0, symSize: 0x2C }
  - { offsetInCU: 0x863D, offset: 0x863D, size: 0x8, addend: 0x0, symName: __ZNSt3__113__rewrap_iterB8ue170006IPcS1_NS_18__unwrap_iter_implIS1_Lb1EEEEET_S4_T0_, symObjAddr: 0xF810, symBinAddr: 0x10001111C, symSize: 0x50 }
  - { offsetInCU: 0x8692, offset: 0x8692, size: 0x8, addend: 0x0, symName: __ZNSt3__19make_pairB8ue170006IPKcS2_EENS_4pairINS_18__unwrap_ref_decayIT_E4typeENS4_IT0_E4typeEEEOS5_OS8_, symObjAddr: 0xF860, symBinAddr: 0x10001116C, symSize: 0x38 }
  - { offsetInCU: 0x86E1, offset: 0x86E1, size: 0x8, addend: 0x0, symName: __ZNSt3__113__unwrap_iterB8ue170006IPKcNS_18__unwrap_iter_implIS2_Lb1EEELi0EEEDTclsrT0_8__unwrapclsr3stdE7declvalIT_EEEES6_, symObjAddr: 0xF898, symBinAddr: 0x1000111A4, symSize: 0x24 }
  - { offsetInCU: 0x8825, offset: 0x8825, size: 0x8, addend: 0x0, symName: __ZNSt3__119__copy_trivial_implB8ue170006IKccEENS_4pairIPT_PT0_EES4_S4_S6_, symObjAddr: 0xF950, symBinAddr: 0x10001125C, symSize: 0x78 }
  - { offsetInCU: 0x888D, offset: 0x888D, size: 0x8, addend: 0x0, symName: __ZNSt3__119__constexpr_memmoveB8ue170006IcKcLi0EEEPT_S3_PT0_NS_15__element_countE, symObjAddr: 0xF9C8, symBinAddr: 0x1000112D4, symSize: 0xA0 }
  - { offsetInCU: 0x88FB, offset: 0x88FB, size: 0x8, addend: 0x0, symName: __ZNSt3__19make_pairB8ue170006IRPKcPcEENS_4pairINS_18__unwrap_ref_decayIT_E4typeENS6_IT0_E4typeEEEOS7_OSA_, symObjAddr: 0xFA68, symBinAddr: 0x100011374, symSize: 0x38 }
  - { offsetInCU: 0x899D, offset: 0x899D, size: 0x8, addend: 0x0, symName: __ZNSt3__113__rewrap_iterB8ue170006IPKcS2_NS_18__unwrap_iter_implIS2_Lb1EEEEET_S5_T0_, symObjAddr: 0xFB34, symBinAddr: 0x100011440, symSize: 0x50 }
  - { offsetInCU: 0x89F2, offset: 0x89F2, size: 0x8, addend: 0x0, symName: __ZNSt3__16fill_nB8ue170006IPcmcEET_S2_T0_RKT1_, symObjAddr: 0xFC14, symBinAddr: 0x100011520, symSize: 0x44 }
  - { offsetInCU: 0x8A55, offset: 0x8A55, size: 0x8, addend: 0x0, symName: __ZNSt3__18__fill_nB8ue170006IPcmcEET_S2_T0_RKT1_, symObjAddr: 0xFC58, symBinAddr: 0x100011564, symSize: 0x64 }
  - { offsetInCU: 0x8AB8, offset: 0x8AB8, size: 0x8, addend: 0x0, symName: __ZNSt3__121__convert_to_integralB8ue170006Em, symObjAddr: 0xFCBC, symBinAddr: 0x1000115C8, symSize: 0x14 }
  - { offsetInCU: 0x8CE5, offset: 0x8CE5, size: 0x8, addend: 0x0, symName: __ZNSt3__116__input_c_stringB8ue170006IcNS_11char_traitsIcEEEERNS_13basic_istreamIT_T0_EES7_PS4_m, symObjAddr: 0xFD88, symBinAddr: 0x100011694, symSize: 0x2C8 }
  - { offsetInCU: 0x91EB, offset: 0x91EB, size: 0x8, addend: 0x0, symName: __ZSt28__throw_bad_array_new_lengthB8ue170006v, symObjAddr: 0xF404, symBinAddr: 0x100010D10, symSize: 0x34 }
  - { offsetInCU: 0x9642, offset: 0x9642, size: 0x8, addend: 0x0, symName: __ZNKSt3__16chrono13__duration_ltINS0_8durationIxNS_5ratioILl1ELl1000EEEEENS2_IeNS3_ILl1ELl1EEEEEEclB8ue170006ERKS5_RKS7_, symObjAddr: 0x10620, symBinAddr: 0x100011F2C, symSize: 0x78 }
  - { offsetInCU: 0x96BF, offset: 0x96BF, size: 0x8, addend: 0x0, symName: __ZNKSt3__16chrono15__duration_castINS0_8durationIeNS_5ratioILl1ELl1EEEEENS2_IeNS3_ILl1ELl1000EEEEENS3_ILl1000ELl1EEELb0ELb1EEclB8ue170006ERKS5_, symObjAddr: 0x108C0, symBinAddr: 0x1000121CC, symSize: 0x4C }
  - { offsetInCU: 0x972B, offset: 0x972B, size: 0x8, addend: 0x0, symName: __ZNKSt3__16chrono15__duration_castINS0_8durationIxNS_5ratioILl1ELl1000EEEEENS2_IxNS3_ILl1ELl1000000000EEEEENS3_ILl1000000ELl1EEELb0ELb1EEclB8ue170006ERKS5_, symObjAddr: 0x10924, symBinAddr: 0x100012230, symSize: 0x4C }
  - { offsetInCU: 0x9774, offset: 0x9774, size: 0x8, addend: 0x0, symName: __ZNKSt3__16chrono13__duration_ltINS0_8durationIxNS_5ratioILl1ELl1000000000EEEEENS2_IxNS3_ILl1ELl1000EEEEEEclB8ue170006ERKS5_RKS7_, symObjAddr: 0x109D4, symBinAddr: 0x1000122E0, symSize: 0x6C }
  - { offsetInCU: 0xBB4D, offset: 0xBB4D, size: 0x8, addend: 0x0, symName: __ZNSt3__112basic_stringIcNS_11char_traitsIcEENS_9allocatorIcEEEC1B8ue170006ILi0EEEPKc, symObjAddr: 0x6C0, symBinAddr: 0x100001FCC, symSize: 0x34 }
  - { offsetInCU: 0xBB8C, offset: 0xBB8C, size: 0x8, addend: 0x0, symName: __ZNSt3__112basic_stringIcNS_11char_traitsIcEENS_9allocatorIcEEEpLB8ue170006EPKc, symObjAddr: 0x6F4, symBinAddr: 0x100002000, symSize: 0x2C }
  - { offsetInCU: 0xBBC0, offset: 0xBBC0, size: 0x8, addend: 0x0, symName: __Z12title_splashv, symObjAddr: 0x7D0, symBinAddr: 0x1000020DC, symSize: 0xF4 }
  - { offsetInCU: 0xBBDA, offset: 0xBBDA, size: 0x8, addend: 0x0, symName: __ZNSt3__113basic_ostreamIcNS_11char_traitsIcEEElsB8ue170006EPFRS3_S4_E, symObjAddr: 0x8C4, symBinAddr: 0x1000021D0, symSize: 0x2C }
  - { offsetInCU: 0xBC0D, offset: 0xBC0D, size: 0x8, addend: 0x0, symName: __Z14menu_principalv, symObjAddr: 0x948, symBinAddr: 0x100002254, symSize: 0x104 }
  - { offsetInCU: 0xBC26, offset: 0xBC26, size: 0x8, addend: 0x0, symName: __Z11titulo_prodv, symObjAddr: 0xA4C, symBinAddr: 0x100002358, symSize: 0xE4 }
  - { offsetInCU: 0xBC3F, offset: 0xBC3F, size: 0x8, addend: 0x0, symName: __Z15titulo_clientesv, symObjAddr: 0xB30, symBinAddr: 0x10000243C, symSize: 0xE4 }
  - { offsetInCU: 0xBC58, offset: 0xBC58, size: 0x8, addend: 0x0, symName: __Z15titulo_finanzasv, symObjAddr: 0xC14, symBinAddr: 0x100002520, symSize: 0xE4 }
  - { offsetInCU: 0xBC71, offset: 0xBC71, size: 0x8, addend: 0x0, symName: __Z13titulo_ventasv, symObjAddr: 0xCF8, symBinAddr: 0x100002604, symSize: 0xE4 }
  - { offsetInCU: 0xBC8A, offset: 0xBC8A, size: 0x8, addend: 0x0, symName: __Z17titulo_pendientesv, symObjAddr: 0xDDC, symBinAddr: 0x1000026E8, symSize: 0x114 }
  - { offsetInCU: 0xBCA3, offset: 0xBCA3, size: 0x8, addend: 0x0, symName: __Z19titulo_costos_Fijosv, symObjAddr: 0xEF0, symBinAddr: 0x1000027FC, symSize: 0x114 }
  - { offsetInCU: 0xBCBC, offset: 0xBCBC, size: 0x8, addend: 0x0, symName: __Z23titulo_costos_Variablesv, symObjAddr: 0x1004, symBinAddr: 0x100002910, symSize: 0xE4 }
  - { offsetInCU: 0xBCDB, offset: 0xBCDB, size: 0x8, addend: 0x0, symName: __ZN4VACAC1Ev, symObjAddr: 0x10E8, symBinAddr: 0x1000029F4, symSize: 0x2C }
  - { offsetInCU: 0xBD0C, offset: 0xBD0C, size: 0x8, addend: 0x0, symName: __ZN7CLIENTEC1Ev, symObjAddr: 0x1114, symBinAddr: 0x100002A20, symSize: 0x2C }
  - { offsetInCU: 0xBD3D, offset: 0xBD3D, size: 0x8, addend: 0x0, symName: __ZN5VENTAC1Ev, symObjAddr: 0x1140, symBinAddr: 0x100002A4C, symSize: 0x2C }
  - { offsetInCU: 0xBD6E, offset: 0xBD6E, size: 0x8, addend: 0x0, symName: __ZN9PENDIENTEC1Ev, symObjAddr: 0x116C, symBinAddr: 0x100002A78, symSize: 0x2C }
  - { offsetInCU: 0xBD9F, offset: 0xBD9F, size: 0x8, addend: 0x0, symName: __ZN5COSTOC1Ev, symObjAddr: 0x1198, symBinAddr: 0x100002AA4, symSize: 0x2C }
  - { offsetInCU: 0xBDCA, offset: 0xBDCA, size: 0x8, addend: 0x0, symName: __Z13obtener_fechav, symObjAddr: 0x11C4, symBinAddr: 0x100002AD0, symSize: 0x38 }
  - { offsetInCU: 0xBE04, offset: 0xBE04, size: 0x8, addend: 0x0, symName: __Z13pedir_CstringPKcPci, symObjAddr: 0x11FC, symBinAddr: 0x100002B08, symSize: 0x16C }
  - { offsetInCU: 0xBE49, offset: 0xBE49, size: 0x8, addend: 0x0, symName: __ZNSt3__111char_traitsIcE3eofB8ue170006Ev, symObjAddr: 0x1368, symBinAddr: 0x100002C74, symSize: 0x8 }
  - { offsetInCU: 0xBEE9, offset: 0xBEE9, size: 0x8, addend: 0x0, symName: __ZNSt3__113basic_istreamIcNS_11char_traitsIcEEE7getlineB8ue170006EPcl, symObjAddr: 0x1370, symBinAddr: 0x100002C7C, symSize: 0x68 }
  - { offsetInCU: 0xBF2D, offset: 0xBF2D, size: 0x8, addend: 0x0, symName: __ZNKSt3__19basic_iosIcNS_11char_traitsIcEEE4failB8ue170006Ev, symObjAddr: 0x13D8, symBinAddr: 0x100002CE4, symSize: 0x28 }
  - { offsetInCU: 0xBF53, offset: 0xBF53, size: 0x8, addend: 0x0, symName: __ZNSt3__19basic_iosIcNS_11char_traitsIcEEE5clearB8ue170006Ej, symObjAddr: 0x1400, symBinAddr: 0x100002D0C, symSize: 0x2C }
  - { offsetInCU: 0xBF88, offset: 0xBF88, size: 0x8, addend: 0x0, symName: __ZNKSt3__19basic_iosIcNS_11char_traitsIcEEE3eofB8ue170006Ev, symObjAddr: 0x142C, symBinAddr: 0x100002D38, symSize: 0x28 }
  - { offsetInCU: 0xBFAD, offset: 0xBFAD, size: 0x8, addend: 0x0, symName: __Z9pedir_intPKc, symObjAddr: 0x1454, symBinAddr: 0x100002D60, symSize: 0x70 }
  - { offsetInCU: 0xBFE7, offset: 0xBFE7, size: 0x8, addend: 0x0, symName: __Z11pedir_floatPKc, symObjAddr: 0x14C4, symBinAddr: 0x100002DD0, symSize: 0x74 }
  - { offsetInCU: 0xC021, offset: 0xC021, size: 0x8, addend: 0x0, symName: __Z12pedir_pagadav, symObjAddr: 0x1538, symBinAddr: 0x100002E44, symSize: 0x224 }
  - { offsetInCU: 0xC04D, offset: 0xC04D, size: 0x8, addend: 0x0, symName: __Z14checkear_Vacioi, symObjAddr: 0x17D0, symBinAddr: 0x1000030DC, symSize: 0xA4 }
  - { offsetInCU: 0xC084, offset: 0xC084, size: 0x8, addend: 0x0, symName: __ZNSt3__16chrono8durationIxNS_5ratioILl1ELl1000EEEEC1B8ue170006IiEERKT_PNS_9enable_ifIXaasr14is_convertibleIS8_xEE5valueooL_ZNS_17integral_constantIbLb0EE5valueEEntsr23treat_as_floating_pointIS6_EE5valueEvE4typeE, symObjAddr: 0x194C, symBinAddr: 0x100003258, symSize: 0x3C }
  - { offsetInCU: 0xC0D0, offset: 0xC0D0, size: 0x8, addend: 0x0, symName: __Z13leer_ArchivosPKc, symObjAddr: 0x1988, symBinAddr: 0x100003294, symSize: 0xEF8 }
  - { offsetInCU: 0xC1C6, offset: 0xC1C6, size: 0x8, addend: 0x0, symName: __ZNSt3__113basic_fstreamIcNS_11char_traitsIcEEEC1Ev, symObjAddr: 0x2880, symBinAddr: 0x10000418C, symSize: 0x10C }
  - { offsetInCU: 0xC1F2, offset: 0xC1F2, size: 0x8, addend: 0x0, symName: __ZNSt3__113basic_fstreamIcNS_11char_traitsIcEEE4openEPKcj, symObjAddr: 0x298C, symBinAddr: 0x100004298, symSize: 0x84 }
  - { offsetInCU: 0xC238, offset: 0xC238, size: 0x8, addend: 0x0, symName: __ZNKSt3__19basic_iosIcNS_11char_traitsIcEEEntB8ue170006Ev, symObjAddr: 0x2A10, symBinAddr: 0x10000431C, symSize: 0x28 }
  - { offsetInCU: 0xC25E, offset: 0xC25E, size: 0x8, addend: 0x0, symName: __ZNSt3__113basic_fstreamIcNS_11char_traitsIcEEE5closeEv, symObjAddr: 0x2A38, symBinAddr: 0x100004344, symSize: 0x58 }
  - { offsetInCU: 0xC28B, offset: 0xC28B, size: 0x8, addend: 0x0, symName: __ZNSt3__113basic_fstreamIcNS_11char_traitsIcEEED1Ev, symObjAddr: 0x2A90, symBinAddr: 0x10000439C, symSize: 0x70 }
  - { offsetInCU: 0xC2B6, offset: 0xC2B6, size: 0x8, addend: 0x0, symName: __Z17escribir_ArchivosPKc, symObjAddr: 0x2B00, symBinAddr: 0x10000440C, symSize: 0xB78 }
  - { offsetInCU: 0xC3D4, offset: 0xC3D4, size: 0x8, addend: 0x0, symName: __ZNSt3__114basic_ofstreamIcNS_11char_traitsIcEEEC1Ev, symObjAddr: 0x3678, symBinAddr: 0x100004F84, symSize: 0xF4 }
  - { offsetInCU: 0xC400, offset: 0xC400, size: 0x8, addend: 0x0, symName: __ZNSt3__114basic_ofstreamIcNS_11char_traitsIcEEE5closeEv, symObjAddr: 0x376C, symBinAddr: 0x100005078, symSize: 0x58 }
  - { offsetInCU: 0xC42D, offset: 0xC42D, size: 0x8, addend: 0x0, symName: __ZNSt3__114basic_ofstreamIcNS_11char_traitsIcEEED1Ev, symObjAddr: 0x37C4, symBinAddr: 0x1000050D0, symSize: 0x70 }
  - { offsetInCU: 0xC459, offset: 0xC459, size: 0x8, addend: 0x0, symName: __Z11buscar_VacaPKc, symObjAddr: 0x3834, symBinAddr: 0x100005140, symSize: 0xD0 }
  - { offsetInCU: 0xC4AF, offset: 0xC4AF, size: 0x8, addend: 0x0, symName: __Z15registrar_Vacasi, symObjAddr: 0x3904, symBinAddr: 0x100005210, symSize: 0x35C }
  - { offsetInCU: 0xC521, offset: 0xC521, size: 0x8, addend: 0x0, symName: __Z13mostrar_Vacasv, symObjAddr: 0x3C60, symBinAddr: 0x10000556C, symSize: 0x324 }
  - { offsetInCU: 0xC569, offset: 0xC569, size: 0x8, addend: 0x0, symName: __Z11editar_Vacav, symObjAddr: 0x3F84, symBinAddr: 0x100005890, symSize: 0x548 }
  - { offsetInCU: 0xC5CD, offset: 0xC5CD, size: 0x8, addend: 0x0, symName: __Z13eliminar_VacaPKc, symObjAddr: 0x44CC, symBinAddr: 0x100005DD8, symSize: 0x164 }
  - { offsetInCU: 0xC63F, offset: 0xC63F, size: 0x8, addend: 0x0, symName: __Z18registrar_Clientesi, symObjAddr: 0x4630, symBinAddr: 0x100005F3C, symSize: 0x264 }
  - { offsetInCU: 0xC6A3, offset: 0xC6A3, size: 0x8, addend: 0x0, symName: __Z16mostrar_Clientesv, symObjAddr: 0x4894, symBinAddr: 0x1000061A0, symSize: 0x320 }
  - { offsetInCU: 0xC6EB, offset: 0xC6EB, size: 0x8, addend: 0x0, symName: __Z14buscar_ClientePKcb, symObjAddr: 0x4BB4, symBinAddr: 0x1000064C0, symSize: 0x16C }
  - { offsetInCU: 0xC76B, offset: 0xC76B, size: 0x8, addend: 0x0, symName: __Z14editar_Clientev, symObjAddr: 0x4D20, symBinAddr: 0x10000662C, symSize: 0x558 }
  - { offsetInCU: 0xC7CF, offset: 0xC7CF, size: 0x8, addend: 0x0, symName: __Z16eliminar_ClientePKc, symObjAddr: 0x5278, symBinAddr: 0x100006B84, symSize: 0x16C }
  - { offsetInCU: 0xC841, offset: 0xC841, size: 0x8, addend: 0x0, symName: __Z16registrar_Ventasi, symObjAddr: 0x53E4, symBinAddr: 0x100006CF0, symSize: 0x620 }
  - { offsetInCU: 0xC907, offset: 0xC907, size: 0x8, addend: 0x0, symName: __Z14mostrar_Ventasv, symObjAddr: 0x5A04, symBinAddr: 0x100007310, symSize: 0x430 }
  - { offsetInCU: 0xC95D, offset: 0xC95D, size: 0x8, addend: 0x0, symName: __Z18mostrar_Pendientesv, symObjAddr: 0x5E34, symBinAddr: 0x100007740, symSize: 0x370 }
  - { offsetInCU: 0xC9A5, offset: 0xC9A5, size: 0x8, addend: 0x0, symName: __Z12buscar_VentaPKc, symObjAddr: 0x61A4, symBinAddr: 0x100007AB0, symSize: 0xD0 }
  - { offsetInCU: 0xC9FB, offset: 0xC9FB, size: 0x8, addend: 0x0, symName: __Z16buscar_PendientePKc, symObjAddr: 0x6274, symBinAddr: 0x100007B80, symSize: 0xD0 }
  - { offsetInCU: 0xCA51, offset: 0xCA51, size: 0x8, addend: 0x0, symName: __Z18eliminar_PendientePKc, symObjAddr: 0x6344, symBinAddr: 0x100007C50, symSize: 0x224 }
  - { offsetInCU: 0xCAED, offset: 0xCAED, size: 0x8, addend: 0x0, symName: __Z14eliminar_VentaPKc, symObjAddr: 0x6568, symBinAddr: 0x100007E74, symSize: 0x1EC }
  - { offsetInCU: 0xCB7B, offset: 0xCB7B, size: 0x8, addend: 0x0, symName: __Z12editar_Ventav, symObjAddr: 0x6754, symBinAddr: 0x100008060, symSize: 0x9D8 }
  - { offsetInCU: 0xCC17, offset: 0xCC17, size: 0x8, addend: 0x0, symName: __Z16editar_Pendientev, symObjAddr: 0x713C, symBinAddr: 0x100008A48, symSize: 0x764 }
  - { offsetInCU: 0xCCBD, offset: 0xCCBD, size: 0x8, addend: 0x0, symName: __Z17buscar_costo_FijoPKc, symObjAddr: 0x78A0, symBinAddr: 0x1000091AC, symSize: 0xC8 }
  - { offsetInCU: 0xCD13, offset: 0xCD13, size: 0x8, addend: 0x0, symName: __Z21buscar_costo_VariablePKc, symObjAddr: 0x7968, symBinAddr: 0x100009274, symSize: 0xC8 }
  - { offsetInCU: 0xCD69, offset: 0xCD69, size: 0x8, addend: 0x0, symName: __Z22registrar_costos_Fijosi, symObjAddr: 0x7A30, symBinAddr: 0x10000933C, symSize: 0x318 }
  - { offsetInCU: 0xCDDB, offset: 0xCDDB, size: 0x8, addend: 0x0, symName: __Z26registrar_costos_Variablesi, symObjAddr: 0x7D48, symBinAddr: 0x100009654, symSize: 0x244 }
  - { offsetInCU: 0xCE4D, offset: 0xCE4D, size: 0x8, addend: 0x0, symName: __Z20mostrar_costos_Fijosv, symObjAddr: 0x7F8C, symBinAddr: 0x100009898, symSize: 0x2D0 }
  - { offsetInCU: 0xCE95, offset: 0xCE95, size: 0x8, addend: 0x0, symName: __Z24mostrar_costos_Variablesv, symObjAddr: 0x825C, symBinAddr: 0x100009B68, symSize: 0x308 }
  - { offsetInCU: 0xCEDD, offset: 0xCEDD, size: 0x8, addend: 0x0, symName: __Z17editar_costo_Fijov, symObjAddr: 0x8564, symBinAddr: 0x100009E70, symSize: 0x4F4 }
  - { offsetInCU: 0xCF41, offset: 0xCF41, size: 0x8, addend: 0x0, symName: __Z21editar_costo_Variablev, symObjAddr: 0x8A58, symBinAddr: 0x10000A364, symSize: 0x530 }
  - { offsetInCU: 0xCFA5, offset: 0xCFA5, size: 0x8, addend: 0x0, symName: __Z19eliminar_costo_FijoPKc, symObjAddr: 0x8F88, symBinAddr: 0x10000A894, symSize: 0x164 }
  - { offsetInCU: 0xD01D, offset: 0xD01D, size: 0x8, addend: 0x0, symName: __Z23eliminar_costo_VariablePKc, symObjAddr: 0x90EC, symBinAddr: 0x10000A9F8, symSize: 0x164 }
  - { offsetInCU: 0xD095, offset: 0xD095, size: 0x8, addend: 0x0, symName: __Z15ingresar_Preciov, symObjAddr: 0x9250, symBinAddr: 0x10000AB5C, symSize: 0x140 }
  - { offsetInCU: 0xD0C1, offset: 0xD0C1, size: 0x8, addend: 0x0, symName: __Z14mostrar_Preciov, symObjAddr: 0x9390, symBinAddr: 0x10000AC9C, symSize: 0x13C }
  - { offsetInCU: 0xD0ED, offset: 0xD0ED, size: 0x8, addend: 0x0, symName: __Z19calcular_Produccionv, symObjAddr: 0x94CC, symBinAddr: 0x10000ADD8, symSize: 0x164 }
  - { offsetInCU: 0xD135, offset: 0xD135, size: 0x8, addend: 0x0, symName: __Z17calcular_Ingresosv, symObjAddr: 0x9630, symBinAddr: 0x10000AF3C, symSize: 0x154 }
  - { offsetInCU: 0xD17D, offset: 0xD17D, size: 0x8, addend: 0x0, symName: __Z15calcular_Costosv, symObjAddr: 0x9784, symBinAddr: 0x10000B090, symSize: 0x208 }
  - { offsetInCU: 0xD1E1, offset: 0xD1E1, size: 0x8, addend: 0x0, symName: __Z17calcular_Utilidadv, symObjAddr: 0x998C, symBinAddr: 0x10000B298, symSize: 0x198 }
  - { offsetInCU: 0xD229, offset: 0xD229, size: 0x8, addend: 0x0, symName: __Z12start_screenv, symObjAddr: 0x9B24, symBinAddr: 0x10000B430, symSize: 0xA4 }
  - { offsetInCU: 0xD255, offset: 0xD255, size: 0x8, addend: 0x0, symName: __Z9principalv, symObjAddr: 0x9BC8, symBinAddr: 0x10000B4D4, symSize: 0x2D4 }
  - { offsetInCU: 0xD28F, offset: 0xD28F, size: 0x8, addend: 0x0, symName: __Z10produccionv, symObjAddr: 0x9EAC, symBinAddr: 0x10000B7B8, symSize: 0x88C }
  - { offsetInCU: 0xD2F3, offset: 0xD2F3, size: 0x8, addend: 0x0, symName: __Z8clientesv, symObjAddr: 0xA754, symBinAddr: 0x10000C060, symSize: 0x828 }
  - { offsetInCU: 0xD35D, offset: 0xD35D, size: 0x8, addend: 0x0, symName: __Z8finanzasv, symObjAddr: 0xAF94, symBinAddr: 0x10000C8A0, symSize: 0x6C8 }
  - { offsetInCU: 0xD3A9, offset: 0xD3A9, size: 0x8, addend: 0x0, symName: __Z12costos_Fijosv, symObjAddr: 0xB684, symBinAddr: 0x10000CF90, symSize: 0x7E0 }
  - { offsetInCU: 0xD413, offset: 0xD413, size: 0x8, addend: 0x0, symName: __Z16costos_Variablesv, symObjAddr: 0xBE84, symBinAddr: 0x10000D790, symSize: 0x80C }
  - { offsetInCU: 0xD47D, offset: 0xD47D, size: 0x8, addend: 0x0, symName: __Z6ventasv, symObjAddr: 0xC6B0, symBinAddr: 0x10000DFBC, symSize: 0x998 }
  - { offsetInCU: 0xD4F6, offset: 0xD4F6, size: 0x8, addend: 0x0, symName: __Z10pendientesv, symObjAddr: 0xD064, symBinAddr: 0x10000E970, symSize: 0x814 }
  - { offsetInCU: 0xD552, offset: 0xD552, size: 0x8, addend: 0x0, symName: _main, symObjAddr: 0xD890, symBinAddr: 0x10000F19C, symSize: 0x18C }
  - { offsetInCU: 0xD597, offset: 0xD597, size: 0x8, addend: 0x0, symName: __ZN4VACAC2Ev, symObjAddr: 0xDA1C, symBinAddr: 0x10000F328, symSize: 0x5C }
  - { offsetInCU: 0xD5C3, offset: 0xD5C3, size: 0x8, addend: 0x0, symName: __ZN7CLIENTEC2Ev, symObjAddr: 0xDA78, symBinAddr: 0x10000F384, symSize: 0x84 }
  - { offsetInCU: 0xD5EF, offset: 0xD5EF, size: 0x8, addend: 0x0, symName: __ZN5VENTAC2Ev, symObjAddr: 0xDAFC, symBinAddr: 0x10000F408, symSize: 0x70 }
  - { offsetInCU: 0xD620, offset: 0xD620, size: 0x8, addend: 0x0, symName: __ZN5FECHAC1Ev, symObjAddr: 0xDB6C, symBinAddr: 0x10000F478, symSize: 0x2C }
  - { offsetInCU: 0xD64C, offset: 0xD64C, size: 0x8, addend: 0x0, symName: __ZN5FECHAC2Ev, symObjAddr: 0xDB98, symBinAddr: 0x10000F4A4, symSize: 0x34 }
  - { offsetInCU: 0xD678, offset: 0xD678, size: 0x8, addend: 0x0, symName: __ZN9PENDIENTEC2Ev, symObjAddr: 0xDBCC, symBinAddr: 0x10000F4D8, symSize: 0x68 }
  - { offsetInCU: 0xD6A4, offset: 0xD6A4, size: 0x8, addend: 0x0, symName: __ZN5COSTOC2Ev, symObjAddr: 0xDC34, symBinAddr: 0x10000F540, symSize: 0x74 }
  - { offsetInCU: 0xD6D0, offset: 0xD6D0, size: 0x8, addend: 0x0, symName: __ZNSt3__113basic_fstreamIcNS_11char_traitsIcEEED2Ev, symObjAddr: 0xDCA8, symBinAddr: 0x10000F5B4, symSize: 0xA4 }
  - { offsetInCU: 0xD709, offset: 0xD709, size: 0x8, addend: 0x0, symName: __ZThn16_NSt3__113basic_fstreamIcNS_11char_traitsIcEEED1Ev, symObjAddr: 0xDD4C, symBinAddr: 0x10000F658, symSize: 0x1C }
  - { offsetInCU: 0xD71F, offset: 0xD71F, size: 0x8, addend: 0x0, symName: __ZTv0_n24_NSt3__113basic_fstreamIcNS_11char_traitsIcEEED1Ev, symObjAddr: 0xDD68, symBinAddr: 0x10000F674, symSize: 0x28 }
  - { offsetInCU: 0xD735, offset: 0xD735, size: 0x8, addend: 0x0, symName: __ZNSt3__113basic_fstreamIcNS_11char_traitsIcEEED0Ev, symObjAddr: 0xDD90, symBinAddr: 0x10000F69C, symSize: 0x58 }
  - { offsetInCU: 0xD761, offset: 0xD761, size: 0x8, addend: 0x0, symName: __ZThn16_NSt3__113basic_fstreamIcNS_11char_traitsIcEEED0Ev, symObjAddr: 0xDDE8, symBinAddr: 0x10000F6F4, symSize: 0x18 }
  - { offsetInCU: 0xD777, offset: 0xD777, size: 0x8, addend: 0x0, symName: __ZTv0_n24_NSt3__113basic_fstreamIcNS_11char_traitsIcEEED0Ev, symObjAddr: 0xDE00, symBinAddr: 0x10000F70C, symSize: 0x20 }
  - { offsetInCU: 0xD78D, offset: 0xD78D, size: 0x8, addend: 0x0, symName: __ZNSt3__114basic_ofstreamIcNS_11char_traitsIcEEED2Ev, symObjAddr: 0xDE20, symBinAddr: 0x10000F72C, symSize: 0x9C }
  - { offsetInCU: 0xD7C7, offset: 0xD7C7, size: 0x8, addend: 0x0, symName: __ZTv0_n24_NSt3__114basic_ofstreamIcNS_11char_traitsIcEEED1Ev, symObjAddr: 0xDEBC, symBinAddr: 0x10000F7C8, symSize: 0x28 }
  - { offsetInCU: 0xD7DE, offset: 0xD7DE, size: 0x8, addend: 0x0, symName: __ZNSt3__111char_traitsIcE6lengthB8ue170006EPKc, symObjAddr: 0xE0D8, symBinAddr: 0x10000F9E4, symSize: 0x48 }
  - { offsetInCU: 0xD81F, offset: 0xD81F, size: 0x8, addend: 0x0, symName: __ZNKSt3__113basic_ostreamIcNS_11char_traitsIcEEE6sentrycvbB8ue170006Ev, symObjAddr: 0xE120, symBinAddr: 0x10000FA2C, symSize: 0x1C }
  - { offsetInCU: 0xD845, offset: 0xD845, size: 0x8, addend: 0x0, symName: __ZNSt3__119ostreambuf_iteratorIcNS_11char_traitsIcEEEC1B8ue170006ERNS_13basic_ostreamIcS2_EE, symObjAddr: 0xE384, symBinAddr: 0x10000FC90, symSize: 0x34 }
  - { offsetInCU: 0xD87D, offset: 0xD87D, size: 0x8, addend: 0x0, symName: __ZNKSt3__18ios_base5flagsB8ue170006Ev, symObjAddr: 0xE3B8, symBinAddr: 0x10000FCC4, symSize: 0x18 }
  - { offsetInCU: 0xD8A5, offset: 0xD8A5, size: 0x8, addend: 0x0, symName: __ZNKSt3__19basic_iosIcNS_11char_traitsIcEEE4fillB8ue170006Ev, symObjAddr: 0xE3D0, symBinAddr: 0x10000FCDC, symSize: 0x64 }
  - { offsetInCU: 0xD8CD, offset: 0xD8CD, size: 0x8, addend: 0x0, symName: __ZNKSt3__119ostreambuf_iteratorIcNS_11char_traitsIcEEE6failedB8ue170006Ev, symObjAddr: 0xE434, symBinAddr: 0x10000FD40, symSize: 0x24 }
  - { offsetInCU: 0xD8F3, offset: 0xD8F3, size: 0x8, addend: 0x0, symName: __ZNSt3__19basic_iosIcNS_11char_traitsIcEEE8setstateB8ue170006Ej, symObjAddr: 0xE458, symBinAddr: 0x10000FD64, symSize: 0x2C }
  - { offsetInCU: 0xD928, offset: 0xD928, size: 0x8, addend: 0x0, symName: __ZNKSt3__18ios_base5widthB8ue170006Ev, symObjAddr: 0xE484, symBinAddr: 0x10000FD90, symSize: 0x18 }
  - { offsetInCU: 0xD950, offset: 0xD950, size: 0x8, addend: 0x0, symName: __ZNSt3__115basic_streambufIcNS_11char_traitsIcEEE5sputnB8ue170006EPKcl, symObjAddr: 0xE49C, symBinAddr: 0x10000FDA8, symSize: 0x3C }
  - { offsetInCU: 0xD992, offset: 0xD992, size: 0x8, addend: 0x0, symName: __ZNSt3__112basic_stringIcNS_11char_traitsIcEENS_9allocatorIcEEEC1B8ue170006Emc, symObjAddr: 0xE4D8, symBinAddr: 0x10000FDE4, symSize: 0x3C }
  - { offsetInCU: 0xD9DA, offset: 0xD9DA, size: 0x8, addend: 0x0, symName: __ZNKSt3__112basic_stringIcNS_11char_traitsIcEENS_9allocatorIcEEE4dataB8ue170006Ev, symObjAddr: 0xE514, symBinAddr: 0x10000FE20, symSize: 0x28 }
  - { offsetInCU: 0xDA00, offset: 0xDA00, size: 0x8, addend: 0x0, symName: __ZNSt3__18ios_base5widthB8ue170006El, symObjAddr: 0xE53C, symBinAddr: 0x10000FE48, symSize: 0x2C }
  - { offsetInCU: 0xDA46, offset: 0xDA46, size: 0x8, addend: 0x0, symName: __ZNSt3__112basic_stringIcNS_11char_traitsIcEENS_9allocatorIcEEEC2B8ue170006Emc, symObjAddr: 0xE568, symBinAddr: 0x10000FE74, symSize: 0x4C }
  - { offsetInCU: 0xDA94, offset: 0xDA94, size: 0x8, addend: 0x0, symName: __ZNSt3__117__compressed_pairINS_12basic_stringIcNS_11char_traitsIcEENS_9allocatorIcEEE5__repES5_EC1B8ue170006INS_18__default_init_tagESA_EEOT_OT0_, symObjAddr: 0xE5B4, symBinAddr: 0x10000FEC0, symSize: 0x3C }
  - { offsetInCU: 0xDAEC, offset: 0xDAEC, size: 0x8, addend: 0x0, symName: __ZNSt3__117__compressed_pairINS_12basic_stringIcNS_11char_traitsIcEENS_9allocatorIcEEE5__repES5_EC2B8ue170006INS_18__default_init_tagESA_EEOT_OT0_, symObjAddr: 0xE5F0, symBinAddr: 0x10000FEFC, symSize: 0x3C }
  - { offsetInCU: 0xDB44, offset: 0xDB44, size: 0x8, addend: 0x0, symName: __ZNSt3__122__compressed_pair_elemINS_12basic_stringIcNS_11char_traitsIcEENS_9allocatorIcEEE5__repELi0ELb0EEC2B8ue170006ENS_18__default_init_tagE, symObjAddr: 0xE62C, symBinAddr: 0x10000FF38, symSize: 0x14 }
  - { offsetInCU: 0xDB79, offset: 0xDB79, size: 0x8, addend: 0x0, symName: __ZNSt3__122__compressed_pair_elemINS_9allocatorIcEELi1ELb1EEC2B8ue170006ENS_18__default_init_tagE, symObjAddr: 0xE640, symBinAddr: 0x10000FF4C, symSize: 0x2C }
  - { offsetInCU: 0xDBAE, offset: 0xDBAE, size: 0x8, addend: 0x0, symName: __ZNSt3__19allocatorIcEC2B8ue170006Ev, symObjAddr: 0xE66C, symBinAddr: 0x10000FF78, symSize: 0x2C }
  - { offsetInCU: 0xDBD8, offset: 0xDBD8, size: 0x8, addend: 0x0, symName: __ZNSt3__116__non_trivial_ifILb1ENS_9allocatorIcEEEC2B8ue170006Ev, symObjAddr: 0xE698, symBinAddr: 0x10000FFA4, symSize: 0x14 }
  - { offsetInCU: 0xDC02, offset: 0xDC02, size: 0x8, addend: 0x0, symName: __ZNKSt3__112basic_stringIcNS_11char_traitsIcEENS_9allocatorIcEEE13__get_pointerB8ue170006Ev, symObjAddr: 0xE6C0, symBinAddr: 0x10000FFCC, symSize: 0x54 }
  - { offsetInCU: 0xDC28, offset: 0xDC28, size: 0x8, addend: 0x0, symName: __ZNKSt3__112basic_stringIcNS_11char_traitsIcEENS_9allocatorIcEEE9__is_longB8ue170006Ev, symObjAddr: 0xE714, symBinAddr: 0x100010020, symSize: 0x74 }
  - { offsetInCU: 0xDC4E, offset: 0xDC4E, size: 0x8, addend: 0x0, symName: __ZNKSt3__112basic_stringIcNS_11char_traitsIcEENS_9allocatorIcEEE18__get_long_pointerB8ue170006Ev, symObjAddr: 0xE788, symBinAddr: 0x100010094, symSize: 0x28 }
  - { offsetInCU: 0xDC74, offset: 0xDC74, size: 0x8, addend: 0x0, symName: __ZNKSt3__112basic_stringIcNS_11char_traitsIcEENS_9allocatorIcEEE19__get_short_pointerB8ue170006Ev, symObjAddr: 0xE7B0, symBinAddr: 0x1000100BC, symSize: 0x28 }
  - { offsetInCU: 0xDC9A, offset: 0xDC9A, size: 0x8, addend: 0x0, symName: __ZNKSt3__117__compressed_pairINS_12basic_stringIcNS_11char_traitsIcEENS_9allocatorIcEEE5__repES5_E5firstB8ue170006Ev, symObjAddr: 0xE7E4, symBinAddr: 0x1000100F0, symSize: 0x24 }
  - { offsetInCU: 0xDCC0, offset: 0xDCC0, size: 0x8, addend: 0x0, symName: __ZNKSt3__122__compressed_pair_elemINS_12basic_stringIcNS_11char_traitsIcEENS_9allocatorIcEEE5__repELi0ELb0EE5__getB8ue170006Ev, symObjAddr: 0xE808, symBinAddr: 0x100010114, symSize: 0x14 }
  - { offsetInCU: 0xDCE6, offset: 0xDCE6, size: 0x8, addend: 0x0, symName: __ZNSt3__114pointer_traitsIPKcE10pointer_toB8ue170006ERS1_, symObjAddr: 0xE81C, symBinAddr: 0x100010128, symSize: 0x14 }
  - { offsetInCU: 0xDD09, offset: 0xDD09, size: 0x8, addend: 0x0, symName: __ZNSt3__119ostreambuf_iteratorIcNS_11char_traitsIcEEEC2B8ue170006ERNS_13basic_ostreamIcS2_EE, symObjAddr: 0xE830, symBinAddr: 0x10001013C, symSize: 0x68 }
  - { offsetInCU: 0xDD41, offset: 0xDD41, size: 0x8, addend: 0x0, symName: __ZNKSt3__19basic_iosIcNS_11char_traitsIcEEE5rdbufB8ue170006Ev, symObjAddr: 0xE898, symBinAddr: 0x1000101A4, symSize: 0x24 }
  - { offsetInCU: 0xDD69, offset: 0xDD69, size: 0x8, addend: 0x0, symName: __ZNKSt3__18ios_base5rdbufB8ue170006Ev, symObjAddr: 0xE8BC, symBinAddr: 0x1000101C8, symSize: 0x18 }
  - { offsetInCU: 0xDD8F, offset: 0xDD8F, size: 0x8, addend: 0x0, symName: __ZNSt3__111char_traitsIcE11eq_int_typeB8ue170006Eii, symObjAddr: 0xE8D4, symBinAddr: 0x1000101E0, symSize: 0x28 }
  - { offsetInCU: 0xDDC2, offset: 0xDDC2, size: 0x8, addend: 0x0, symName: __ZNKSt3__19basic_iosIcNS_11char_traitsIcEEE5widenB8ue170006Ec, symObjAddr: 0xE8FC, symBinAddr: 0x100010208, symSize: 0x8C }
  - { offsetInCU: 0xDE21, offset: 0xDE21, size: 0x8, addend: 0x0, symName: __ZNKSt3__15ctypeIcE5widenB8ue170006Ec, symObjAddr: 0xE9B4, symBinAddr: 0x1000102C0, symSize: 0x38 }
  - { offsetInCU: 0xDE56, offset: 0xDE56, size: 0x8, addend: 0x0, symName: __ZNSt3__18ios_base8setstateB8ue170006Ej, symObjAddr: 0xE9EC, symBinAddr: 0x1000102F8, symSize: 0x34 }
  - { offsetInCU: 0xDE8D, offset: 0xDE8D, size: 0x8, addend: 0x0, symName: __ZNKSt3__112basic_stringIcNS_11char_traitsIcEENS_9allocatorIcEEE4sizeB8ue170006Ev, symObjAddr: 0xEA44, symBinAddr: 0x100010350, symSize: 0x54 }
  - { offsetInCU: 0xDEBD, offset: 0xDEBD, size: 0x8, addend: 0x0, symName: __ZNSt3__116allocator_traitsINS_9allocatorIcEEE37select_on_container_copy_constructionB8ue170006IS2_vvEES2_RKS2_, symObjAddr: 0xEA98, symBinAddr: 0x1000103A4, symSize: 0x10 }
  - { offsetInCU: 0xDEEC, offset: 0xDEEC, size: 0x8, addend: 0x0, symName: __ZNKSt3__112basic_stringIcNS_11char_traitsIcEENS_9allocatorIcEEE13get_allocatorB8ue170006Ev, symObjAddr: 0xEAA8, symBinAddr: 0x1000103B4, symSize: 0x24 }
  - { offsetInCU: 0xDF12, offset: 0xDF12, size: 0x8, addend: 0x0, symName: __ZNSt3__112basic_stringIcNS_11char_traitsIcEENS_9allocatorIcEEEC1B8ue170006ENS_24__uninitialized_size_tagEmRKS4_, symObjAddr: 0xEACC, symBinAddr: 0x1000103D8, symSize: 0x3C }
  - { offsetInCU: 0xDF66, offset: 0xDF66, size: 0x8, addend: 0x0, symName: __ZNSt3__112basic_stringIcNS_11char_traitsIcEENS_9allocatorIcEEE13__get_pointerB8ue170006Ev, symObjAddr: 0xEB1C, symBinAddr: 0x100010428, symSize: 0x54 }
  - { offsetInCU: 0xDF8C, offset: 0xDF8C, size: 0x8, addend: 0x0, symName: __ZNSt3__111char_traitsIcE4copyB8ue170006EPcPKcm, symObjAddr: 0xEB70, symBinAddr: 0x10001047C, symSize: 0x64 }
  - { offsetInCU: 0xDFCB, offset: 0xDFCB, size: 0x8, addend: 0x0, symName: __ZNSt3__111char_traitsIcE6assignB8ue170006EPcmc, symObjAddr: 0xEBD4, symBinAddr: 0x1000104E0, symSize: 0x58 }
  - { offsetInCU: 0xE00A, offset: 0xE00A, size: 0x8, addend: 0x0, symName: __ZNKSt3__112basic_stringIcNS_11char_traitsIcEENS_9allocatorIcEEE15__get_long_sizeB8ue170006Ev, symObjAddr: 0xEC2C, symBinAddr: 0x100010538, symSize: 0x28 }
  - { offsetInCU: 0xE030, offset: 0xE030, size: 0x8, addend: 0x0, symName: __ZNKSt3__112basic_stringIcNS_11char_traitsIcEENS_9allocatorIcEEE16__get_short_sizeB8ue170006Ev, symObjAddr: 0xEC54, symBinAddr: 0x100010560, symSize: 0x34 }
  - { offsetInCU: 0xE056, offset: 0xE056, size: 0x8, addend: 0x0, symName: __ZNKSt3__112basic_stringIcNS_11char_traitsIcEENS_9allocatorIcEEE7__allocB8ue170006Ev, symObjAddr: 0xEC88, symBinAddr: 0x100010594, symSize: 0x24 }
  - { offsetInCU: 0xE07C, offset: 0xE07C, size: 0x8, addend: 0x0, symName: __ZNKSt3__117__compressed_pairINS_12basic_stringIcNS_11char_traitsIcEENS_9allocatorIcEEE5__repES5_E6secondB8ue170006Ev, symObjAddr: 0xECAC, symBinAddr: 0x1000105B8, symSize: 0x24 }
  - { offsetInCU: 0xE0A2, offset: 0xE0A2, size: 0x8, addend: 0x0, symName: __ZNKSt3__122__compressed_pair_elemINS_9allocatorIcEELi1ELb1EE5__getB8ue170006Ev, symObjAddr: 0xECD0, symBinAddr: 0x1000105DC, symSize: 0x14 }
  - { offsetInCU: 0xE0C8, offset: 0xE0C8, size: 0x8, addend: 0x0, symName: __ZNSt3__112basic_stringIcNS_11char_traitsIcEENS_9allocatorIcEEEC2B8ue170006ENS_24__uninitialized_size_tagEmRKS4_, symObjAddr: 0xECE4, symBinAddr: 0x1000105F0, symSize: 0x110 }
  - { offsetInCU: 0xE148, offset: 0xE148, size: 0x8, addend: 0x0, symName: __ZNSt3__117__compressed_pairINS_12basic_stringIcNS_11char_traitsIcEENS_9allocatorIcEEE5__repES5_EC1B8ue170006INS_18__default_init_tagERKS5_EEOT_OT0_, symObjAddr: 0xEDF4, symBinAddr: 0x100010700, symSize: 0x3C }
  - { offsetInCU: 0xE1A0, offset: 0xE1A0, size: 0x8, addend: 0x0, symName: __ZNKSt3__112basic_stringIcNS_11char_traitsIcEENS_9allocatorIcEEE8max_sizeB8ue170006Ev, symObjAddr: 0xEE30, symBinAddr: 0x10001073C, symSize: 0xAC }
  - { offsetInCU: 0xE1F2, offset: 0xE1F2, size: 0x8, addend: 0x0, symName: __ZNKSt3__112basic_stringIcNS_11char_traitsIcEENS_9allocatorIcEEE20__throw_length_errorB8ue170006Ev, symObjAddr: 0xEEDC, symBinAddr: 0x1000107E8, symSize: 0x1C }
  - { offsetInCU: 0xE218, offset: 0xE218, size: 0x8, addend: 0x0, symName: __ZNSt3__112basic_stringIcNS_11char_traitsIcEENS_9allocatorIcEEE13__fits_in_ssoB8ue170006Em, symObjAddr: 0xEEF8, symBinAddr: 0x100010804, symSize: 0x4C }
  - { offsetInCU: 0xE23C, offset: 0xE23C, size: 0x8, addend: 0x0, symName: __ZNSt3__117__compressed_pairINS_12basic_stringIcNS_11char_traitsIcEENS_9allocatorIcEEE5__repES5_E5firstB8ue170006Ev, symObjAddr: 0xEF44, symBinAddr: 0x100010850, symSize: 0x24 }
  - { offsetInCU: 0xE262, offset: 0xE262, size: 0x8, addend: 0x0, symName: __ZNSt3__112basic_stringIcNS_11char_traitsIcEENS_9allocatorIcEEE16__set_short_sizeB8ue170006Em, symObjAddr: 0xEF68, symBinAddr: 0x100010874, symSize: 0x78 }
  - { offsetInCU: 0xE297, offset: 0xE297, size: 0x8, addend: 0x0, symName: __ZNSt3__112basic_stringIcNS_11char_traitsIcEENS_9allocatorIcEEE11__recommendB8ue170006Em, symObjAddr: 0xEFE0, symBinAddr: 0x1000108EC, symSize: 0x9C }
  - { offsetInCU: 0xE2CA, offset: 0xE2CA, size: 0x8, addend: 0x0, symName: __ZNSt3__116allocator_traitsINS_9allocatorIcEEE8allocateB8ue170006ERS2_m, symObjAddr: 0xF07C, symBinAddr: 0x100010988, symSize: 0x2C }
  - { offsetInCU: 0xE2FD, offset: 0xE2FD, size: 0x8, addend: 0x0, symName: __ZNSt3__112basic_stringIcNS_11char_traitsIcEENS_9allocatorIcEEE7__allocB8ue170006Ev, symObjAddr: 0xF0A8, symBinAddr: 0x1000109B4, symSize: 0x24 }
  - { offsetInCU: 0xE323, offset: 0xE323, size: 0x8, addend: 0x0, symName: __ZNSt3__112basic_stringIcNS_11char_traitsIcEENS_9allocatorIcEEE16__begin_lifetimeB8ue170006EPcm, symObjAddr: 0xF0CC, symBinAddr: 0x1000109D8, symSize: 0x14 }
  - { offsetInCU: 0xE356, offset: 0xE356, size: 0x8, addend: 0x0, symName: __ZNSt3__112basic_stringIcNS_11char_traitsIcEENS_9allocatorIcEEE14__set_long_capB8ue170006Em, symObjAddr: 0xF0E0, symBinAddr: 0x1000109EC, symSize: 0x70 }
  - { offsetInCU: 0xE38B, offset: 0xE38B, size: 0x8, addend: 0x0, symName: __ZNSt3__112basic_stringIcNS_11char_traitsIcEENS_9allocatorIcEEE18__set_long_pointerB8ue170006EPc, symObjAddr: 0xF150, symBinAddr: 0x100010A5C, symSize: 0x38 }
  - { offsetInCU: 0xE3C0, offset: 0xE3C0, size: 0x8, addend: 0x0, symName: __ZNSt3__112basic_stringIcNS_11char_traitsIcEENS_9allocatorIcEEE15__set_long_sizeB8ue170006Em, symObjAddr: 0xF188, symBinAddr: 0x100010A94, symSize: 0x38 }
  - { offsetInCU: 0xE3F5, offset: 0xE3F5, size: 0x8, addend: 0x0, symName: __ZNSt3__117__compressed_pairINS_12basic_stringIcNS_11char_traitsIcEENS_9allocatorIcEEE5__repES5_EC2B8ue170006INS_18__default_init_tagERKS5_EEOT_OT0_, symObjAddr: 0xF1C0, symBinAddr: 0x100010ACC, symSize: 0x40 }
  - { offsetInCU: 0xE44D, offset: 0xE44D, size: 0x8, addend: 0x0, symName: __ZNSt3__122__compressed_pair_elemINS_9allocatorIcEELi1ELb1EEC2B8ue170006IRKS2_vEEOT_, symObjAddr: 0xF200, symBinAddr: 0x100010B0C, symSize: 0x18 }
  - { offsetInCU: 0xE48F, offset: 0xE48F, size: 0x8, addend: 0x0, symName: __ZNSt3__116allocator_traitsINS_9allocatorIcEEE8max_sizeB8ue170006IS2_vEEmRKS2_, symObjAddr: 0xF218, symBinAddr: 0x100010B24, symSize: 0x24 }
  - { offsetInCU: 0xE4BD, offset: 0xE4BD, size: 0x8, addend: 0x0, symName: __ZNSt3__114numeric_limitsImE3maxB8ue170006Ev, symObjAddr: 0xF23C, symBinAddr: 0x100010B48, symSize: 0x14 }
  - { offsetInCU: 0xE4D1, offset: 0xE4D1, size: 0x8, addend: 0x0, symName: __ZNKSt3__19allocatorIcE8max_sizeB8ue170006Ev, symObjAddr: 0xF250, symBinAddr: 0x100010B5C, symSize: 0x14 }
  - { offsetInCU: 0xE4F7, offset: 0xE4F7, size: 0x8, addend: 0x0, symName: __ZNSt3__123__libcpp_numeric_limitsImLb1EE3maxB8ue170006Ev, symObjAddr: 0xF264, symBinAddr: 0x100010B70, symSize: 0x8 }
  - { offsetInCU: 0xE50B, offset: 0xE50B, size: 0x8, addend: 0x0, symName: __ZNSt12length_errorC1B8ue170006EPKc, symObjAddr: 0xF2D0, symBinAddr: 0x100010BDC, symSize: 0x34 }
  - { offsetInCU: 0xE543, offset: 0xE543, size: 0x8, addend: 0x0, symName: __ZNSt12length_errorC2B8ue170006EPKc, symObjAddr: 0xF304, symBinAddr: 0x100010C10, symSize: 0x4C }
  - { offsetInCU: 0xE57B, offset: 0xE57B, size: 0x8, addend: 0x0, symName: __ZNSt3__122__compressed_pair_elemINS_12basic_stringIcNS_11char_traitsIcEENS_9allocatorIcEEE5__repELi0ELb0EE5__getB8ue170006Ev, symObjAddr: 0xF350, symBinAddr: 0x100010C5C, symSize: 0x14 }
  - { offsetInCU: 0xE5A1, offset: 0xE5A1, size: 0x8, addend: 0x0, symName: __ZNSt3__112basic_stringIcNS_11char_traitsIcEENS_9allocatorIcEEE10__align_itB8ue170006ILm16EEEmm, symObjAddr: 0xF364, symBinAddr: 0x100010C70, symSize: 0x1C }
  - { offsetInCU: 0xE5CF, offset: 0xE5CF, size: 0x8, addend: 0x0, symName: __ZNSt3__19allocatorIcE8allocateB8ue170006Em, symObjAddr: 0xF380, symBinAddr: 0x100010C8C, symSize: 0x84 }
  - { offsetInCU: 0xE603, offset: 0xE603, size: 0x8, addend: 0x0, symName: __ZNSt3__117__compressed_pairINS_12basic_stringIcNS_11char_traitsIcEENS_9allocatorIcEEE5__repES5_E6secondB8ue170006Ev, symObjAddr: 0xF484, symBinAddr: 0x100010D90, symSize: 0x24 }
  - { offsetInCU: 0xE629, offset: 0xE629, size: 0x8, addend: 0x0, symName: __ZNSt3__122__compressed_pair_elemINS_9allocatorIcEELi1ELb1EE5__getB8ue170006Ev, symObjAddr: 0xF4A8, symBinAddr: 0x100010DB4, symSize: 0x14 }
  - { offsetInCU: 0xE64F, offset: 0xE64F, size: 0x8, addend: 0x0, symName: __ZNSt3__112basic_stringIcNS_11char_traitsIcEENS_9allocatorIcEEE18__get_long_pointerB8ue170006Ev, symObjAddr: 0xF4BC, symBinAddr: 0x100010DC8, symSize: 0x28 }
  - { offsetInCU: 0xE675, offset: 0xE675, size: 0x8, addend: 0x0, symName: __ZNSt3__112basic_stringIcNS_11char_traitsIcEENS_9allocatorIcEEE19__get_short_pointerB8ue170006Ev, symObjAddr: 0xF4E4, symBinAddr: 0x100010DF0, symSize: 0x28 }
  - { offsetInCU: 0xE69B, offset: 0xE69B, size: 0x8, addend: 0x0, symName: __ZNSt3__114pointer_traitsIPcE10pointer_toB8ue170006ERc, symObjAddr: 0xF50C, symBinAddr: 0x100010E18, symSize: 0x14 }
  - { offsetInCU: 0xE6F6, offset: 0xE6F6, size: 0x8, addend: 0x0, symName: __ZNKSt3__114__copy_trivialclB8ue170006IKccLi0EEENS_4pairIPT_PT0_EES5_S5_S7_, symObjAddr: 0xF740, symBinAddr: 0x10001104C, symSize: 0x48 }
  - { offsetInCU: 0xE778, offset: 0xE778, size: 0x8, addend: 0x0, symName: __ZNSt3__14pairIPKcS2_EC1B8ue170006ERKS2_S5_, symObjAddr: 0xF8BC, symBinAddr: 0x1000111C8, symSize: 0x3C }
  - { offsetInCU: 0xE7BE, offset: 0xE7BE, size: 0x8, addend: 0x0, symName: __ZNSt3__14pairIPKcS2_EC2B8ue170006ERKS2_S5_, symObjAddr: 0xF8F8, symBinAddr: 0x100011204, symSize: 0x34 }
  - { offsetInCU: 0xE804, offset: 0xE804, size: 0x8, addend: 0x0, symName: __ZNSt3__118__unwrap_iter_implIPKcLb1EE8__unwrapB8ue170006ES2_, symObjAddr: 0xF92C, symBinAddr: 0x100011238, symSize: 0x24 }
  - { offsetInCU: 0xE827, offset: 0xE827, size: 0x8, addend: 0x0, symName: __ZNSt3__14pairIPKcPcEC1B8ue170006ERKS2_RKS3_, symObjAddr: 0xFAA0, symBinAddr: 0x1000113AC, symSize: 0x3C }
  - { offsetInCU: 0xE86D, offset: 0xE86D, size: 0x8, addend: 0x0, symName: __ZNSt3__14pairIPKcPcEC2B8ue170006ERKS2_RKS3_, symObjAddr: 0xFADC, symBinAddr: 0x1000113E8, symSize: 0x34 }
  - { offsetInCU: 0xE8B3, offset: 0xE8B3, size: 0x8, addend: 0x0, symName: __ZNSt3__118__unwrap_iter_implIPcLb1EE8__unwrapB8ue170006ES1_, symObjAddr: 0xFB10, symBinAddr: 0x10001141C, symSize: 0x24 }
  - { offsetInCU: 0xE8D6, offset: 0xE8D6, size: 0x8, addend: 0x0, symName: __ZNSt3__118__unwrap_iter_implIPKcLb1EE8__rewrapB8ue170006ES2_S2_, symObjAddr: 0xFB84, symBinAddr: 0x100011490, symSize: 0x48 }
  - { offsetInCU: 0xE907, offset: 0xE907, size: 0x8, addend: 0x0, symName: __ZNSt3__118__unwrap_iter_implIPcLb1EE8__rewrapB8ue170006ES1_S1_, symObjAddr: 0xFBCC, symBinAddr: 0x1000114D8, symSize: 0x48 }
  - { offsetInCU: 0xE938, offset: 0xE938, size: 0x8, addend: 0x0, symName: __ZNSt3__112basic_stringIcNS_11char_traitsIcEENS_9allocatorIcEEEC2B8ue170006ILi0EEEPKc, symObjAddr: 0xFCD0, symBinAddr: 0x1000115DC, symSize: 0x58 }
  - { offsetInCU: 0xE977, offset: 0xE977, size: 0x8, addend: 0x0, symName: __ZNKSt3__18ios_base4failB8ue170006Ev, symObjAddr: 0xFD28, symBinAddr: 0x100011634, symSize: 0x28 }
  - { offsetInCU: 0xE99F, offset: 0xE99F, size: 0x8, addend: 0x0, symName: __ZNKSt3__18ios_base3eofB8ue170006Ev, symObjAddr: 0xFD50, symBinAddr: 0x10001165C, symSize: 0x24 }
  - { offsetInCU: 0xE9C7, offset: 0xE9C7, size: 0x8, addend: 0x0, symName: __ZNSt3__114numeric_limitsIlE3maxB8ue170006Ev, symObjAddr: 0xFD74, symBinAddr: 0x100011680, symSize: 0x14 }
  - { offsetInCU: 0xE9DB, offset: 0xE9DB, size: 0x8, addend: 0x0, symName: __ZNSt3__123__libcpp_numeric_limitsIlLb1EE3maxB8ue170006Ev, symObjAddr: 0x10050, symBinAddr: 0x10001195C, symSize: 0x8 }
  - { offsetInCU: 0xEA0D, offset: 0xEA0D, size: 0x8, addend: 0x0, symName: __ZNKSt3__113basic_istreamIcNS_11char_traitsIcEEE6sentrycvbB8ue170006Ev, symObjAddr: 0x10058, symBinAddr: 0x100011964, symSize: 0x1C }
  - { offsetInCU: 0xEA33, offset: 0xEA33, size: 0x8, addend: 0x0, symName: __ZNSt3__115basic_streambufIcNS_11char_traitsIcEEE5sgetcB8ue170006Ev, symObjAddr: 0x10074, symBinAddr: 0x100011980, symSize: 0x70 }
  - { offsetInCU: 0xEA59, offset: 0xEA59, size: 0x8, addend: 0x0, symName: __ZNSt3__111char_traitsIcE12to_char_typeB8ue170006Ei, symObjAddr: 0x100E4, symBinAddr: 0x1000119F0, symSize: 0x18 }
  - { offsetInCU: 0xEA7C, offset: 0xEA7C, size: 0x8, addend: 0x0, symName: __ZNKSt3__15ctypeIcE2isB8ue170006Ejc, symObjAddr: 0x100FC, symBinAddr: 0x100011A08, symSize: 0x7C }
  - { offsetInCU: 0xEAC0, offset: 0xEAC0, size: 0x8, addend: 0x0, symName: __ZNSt3__115basic_streambufIcNS_11char_traitsIcEEE6sbumpcB8ue170006Ev, symObjAddr: 0x10178, symBinAddr: 0x100011A84, symSize: 0x78 }
  - { offsetInCU: 0xEAE6, offset: 0xEAE6, size: 0x8, addend: 0x0, symName: __ZNSt3__18ios_base18__setstate_nothrowB8ue170006Ej, symObjAddr: 0x101F0, symBinAddr: 0x100011AFC, symSize: 0x64 }
  - { offsetInCU: 0xEB1B, offset: 0xEB1B, size: 0x8, addend: 0x0, symName: __ZNKSt3__19basic_iosIcNS_11char_traitsIcEEE10exceptionsB8ue170006Ev, symObjAddr: 0x10254, symBinAddr: 0x100011B60, symSize: 0x24 }
  - { offsetInCU: 0xEB41, offset: 0xEB41, size: 0x8, addend: 0x0, symName: __ZNSt3__111char_traitsIcE11to_int_typeB8ue170006Ec, symObjAddr: 0x10278, symBinAddr: 0x100011B84, symSize: 0x14 }
  - { offsetInCU: 0xEB64, offset: 0xEB64, size: 0x8, addend: 0x0, symName: __Z7isasciii, symObjAddr: 0x1028C, symBinAddr: 0x100011B98, symSize: 0x24 }
  - { offsetInCU: 0xEB91, offset: 0xEB91, size: 0x8, addend: 0x0, symName: __ZNKSt3__18ios_base10exceptionsB8ue170006Ev, symObjAddr: 0x102B0, symBinAddr: 0x100011BBC, symSize: 0x18 }
  - { offsetInCU: 0xEBB9, offset: 0xEBB9, size: 0x8, addend: 0x0, symName: __ZNSt3__16chrono8durationIxNS_5ratioILl1ELl1000EEEEC2B8ue170006IiEERKT_PNS_9enable_ifIXaasr14is_convertibleIS8_xEE5valueooL_ZNS_17integral_constantIbLb0EE5valueEEntsr23treat_as_floating_pointIS6_EE5valueEvE4typeE, symObjAddr: 0x102C8, symBinAddr: 0x100011BD4, symSize: 0x28 }
  - { offsetInCU: 0xEC06, offset: 0xEC06, size: 0x8, addend: 0x0, symName: __ZNSt3__16chrono8durationIxNS_5ratioILl1ELl1000EEEE4zeroB8ue170006Ev, symObjAddr: 0x10320, symBinAddr: 0x100011C2C, symSize: 0x50 }
  - { offsetInCU: 0xEC24, offset: 0xEC24, size: 0x8, addend: 0x0, symName: __ZNSt3__16chrono8durationIeNS_5ratioILl1ELl1EEEEC1B8ue170006IeEERKT_PNS_9enable_ifIXaasr14is_convertibleIS8_eEE5valueooL_ZNS_17integral_constantIbLb1EE5valueEEntsr23treat_as_floating_pointIS6_EE5valueEvE4typeE, symObjAddr: 0x10370, symBinAddr: 0x100011C7C, symSize: 0x3C }
  - { offsetInCU: 0xEC71, offset: 0xEC71, size: 0x8, addend: 0x0, symName: __ZNSt3__16chrono8durationIxNS_5ratioILl1ELl1000000000EEEEC1B8ue170006Ev, symObjAddr: 0x103AC, symBinAddr: 0x100011CB8, symSize: 0x2C }
  - { offsetInCU: 0xEC9B, offset: 0xEC9B, size: 0x8, addend: 0x0, symName: __ZNSt3__16chrono8durationIxNS_5ratioILl1ELl1000000000EEEEppB8ue170006Ev, symObjAddr: 0x10470, symBinAddr: 0x100011D7C, symSize: 0x20 }
  - { offsetInCU: 0xECC1, offset: 0xECC1, size: 0x8, addend: 0x0, symName: __ZNSt3__16chrono8durationIxNS_5ratioILl1ELl1000000000EEEE3maxB8ue170006Ev, symObjAddr: 0x10490, symBinAddr: 0x100011D9C, symSize: 0x50 }
  - { offsetInCU: 0xECDF, offset: 0xECDF, size: 0x8, addend: 0x0, symName: __ZNKSt3__16chrono13__duration_ltINS0_8durationIxNS_5ratioILl1ELl1000EEEEES5_EclB8ue170006ERKS5_S8_, symObjAddr: 0x10514, symBinAddr: 0x100011E20, symSize: 0x4C }
  - { offsetInCU: 0xED23, offset: 0xED23, size: 0x8, addend: 0x0, symName: __ZNKSt3__16chrono8durationIxNS_5ratioILl1ELl1000EEEE5countB8ue170006Ev, symObjAddr: 0x10560, symBinAddr: 0x100011E6C, symSize: 0x18 }
  - { offsetInCU: 0xED49, offset: 0xED49, size: 0x8, addend: 0x0, symName: __ZNSt3__16chrono15duration_valuesIxE4zeroB8ue170006Ev, symObjAddr: 0x10578, symBinAddr: 0x100011E84, symSize: 0x8 }
  - { offsetInCU: 0xED67, offset: 0xED67, size: 0x8, addend: 0x0, symName: __ZNSt3__16chrono8durationIxNS_5ratioILl1ELl1000EEEEC1B8ue170006IxEERKT_PNS_9enable_ifIXaasr14is_convertibleIS8_xEE5valueooL_ZNS_17integral_constantIbLb0EE5valueEEntsr23treat_as_floating_pointIS6_EE5valueEvE4typeE, symObjAddr: 0x10580, symBinAddr: 0x100011E8C, symSize: 0x3C }
  - { offsetInCU: 0xEDB4, offset: 0xEDB4, size: 0x8, addend: 0x0, symName: __ZNSt3__16chrono8durationIxNS_5ratioILl1ELl1000EEEEC2B8ue170006IxEERKT_PNS_9enable_ifIXaasr14is_convertibleIS8_xEE5valueooL_ZNS_17integral_constantIbLb0EE5valueEEntsr23treat_as_floating_pointIS6_EE5valueEvE4typeE, symObjAddr: 0x105BC, symBinAddr: 0x100011EC8, symSize: 0x28 }
  - { offsetInCU: 0xEE01, offset: 0xEE01, size: 0x8, addend: 0x0, symName: __ZNSt3__16chrono8durationIeNS_5ratioILl1ELl1EEEEC2B8ue170006IeEERKT_PNS_9enable_ifIXaasr14is_convertibleIS8_eEE5valueooL_ZNS_17integral_constantIbLb1EE5valueEEntsr23treat_as_floating_pointIS6_EE5valueEvE4typeE, symObjAddr: 0x105E4, symBinAddr: 0x100011EF0, symSize: 0x28 }
  - { offsetInCU: 0xEE4E, offset: 0xEE4E, size: 0x8, addend: 0x0, symName: __ZNSt3__16chrono8durationIxNS_5ratioILl1ELl1000000000EEEEC2B8ue170006Ev, symObjAddr: 0x1060C, symBinAddr: 0x100011F18, symSize: 0x14 }
  - { offsetInCU: 0xEE78, offset: 0xEE78, size: 0x8, addend: 0x0, symName: __ZNSt3__16chrono8durationIeNS_5ratioILl1ELl1000EEEEC1B8ue170006IxS3_EERKNS1_IT_T0_EEPNS_9enable_ifIXaasr13__no_overflowIS7_S3_EE5valueooL_ZNS_17integral_constantIbLb1EE5valueEEaaeqsr13__no_overflowIS7_S3_E4typeE3denLi1Entsr23treat_as_floating_pointIS6_EE5valueEvE4typeE, symObjAddr: 0x10698, symBinAddr: 0x100011FA4, symSize: 0x3C }
  - { offsetInCU: 0xEECF, offset: 0xEECF, size: 0x8, addend: 0x0, symName: __ZNKSt3__16chrono8durationIeNS_5ratioILl1ELl1000EEEE5countB8ue170006Ev, symObjAddr: 0x106D4, symBinAddr: 0x100011FE0, symSize: 0x18 }
  - { offsetInCU: 0xEEF5, offset: 0xEEF5, size: 0x8, addend: 0x0, symName: __ZNSt3__16chrono8durationIeNS_5ratioILl1ELl1000EEEEC1B8ue170006IeNS2_ILl1ELl1EEEEERKNS1_IT_T0_EEPNS_9enable_ifIXaasr13__no_overflowIS8_S3_EE5valueooL_ZNS_17integral_constantIbLb1EE5valueEEaaeqsr13__no_overflowIS8_S3_E4typeE3denLi1Entsr23treat_as_floating_pointIS7_EE5valueEvE4typeE, symObjAddr: 0x106EC, symBinAddr: 0x100011FF8, symSize: 0x3C }
  - { offsetInCU: 0xEF4C, offset: 0xEF4C, size: 0x8, addend: 0x0, symName: __ZNSt3__16chrono8durationIeNS_5ratioILl1ELl1000EEEEC2B8ue170006IxS3_EERKNS1_IT_T0_EEPNS_9enable_ifIXaasr13__no_overflowIS7_S3_EE5valueooL_ZNS_17integral_constantIbLb1EE5valueEEaaeqsr13__no_overflowIS7_S3_E4typeE3denLi1Entsr23treat_as_floating_pointIS6_EE5valueEvE4typeE, symObjAddr: 0x10728, symBinAddr: 0x100012034, symSize: 0x48 }
  - { offsetInCU: 0xEFAD, offset: 0xEFAD, size: 0x8, addend: 0x0, symName: __ZNKSt3__16chrono15__duration_castINS0_8durationIxNS_5ratioILl1ELl1000EEEEENS2_IeS4_EENS3_ILl1ELl1EEELb1ELb1EEclB8ue170006ERKS5_, symObjAddr: 0x107A0, symBinAddr: 0x1000120AC, symSize: 0x44 }
  - { offsetInCU: 0xEFE1, offset: 0xEFE1, size: 0x8, addend: 0x0, symName: __ZNSt3__16chrono8durationIeNS_5ratioILl1ELl1000EEEEC1B8ue170006IeEERKT_PNS_9enable_ifIXaasr14is_convertibleIS8_eEE5valueooL_ZNS_17integral_constantIbLb1EE5valueEEntsr23treat_as_floating_pointIS6_EE5valueEvE4typeE, symObjAddr: 0x107E4, symBinAddr: 0x1000120F0, symSize: 0x3C }
  - { offsetInCU: 0xF02E, offset: 0xF02E, size: 0x8, addend: 0x0, symName: __ZNSt3__16chrono8durationIeNS_5ratioILl1ELl1000EEEEC2B8ue170006IeEERKT_PNS_9enable_ifIXaasr14is_convertibleIS8_eEE5valueooL_ZNS_17integral_constantIbLb1EE5valueEEntsr23treat_as_floating_pointIS6_EE5valueEvE4typeE, symObjAddr: 0x10820, symBinAddr: 0x10001212C, symSize: 0x28 }
  - { offsetInCU: 0xF07B, offset: 0xF07B, size: 0x8, addend: 0x0, symName: __ZNSt3__16chrono8durationIeNS_5ratioILl1ELl1000EEEEC2B8ue170006IeNS2_ILl1ELl1EEEEERKNS1_IT_T0_EEPNS_9enable_ifIXaasr13__no_overflowIS8_S3_EE5valueooL_ZNS_17integral_constantIbLb1EE5valueEEaaeqsr13__no_overflowIS8_S3_E4typeE3denLi1Entsr23treat_as_floating_pointIS7_EE5valueEvE4typeE, symObjAddr: 0x10848, symBinAddr: 0x100012154, symSize: 0x48 }
  - { offsetInCU: 0xF0D2, offset: 0xF0D2, size: 0x8, addend: 0x0, symName: __ZNKSt3__16chrono8durationIeNS_5ratioILl1ELl1EEEE5countB8ue170006Ev, symObjAddr: 0x1090C, symBinAddr: 0x100012218, symSize: 0x18 }
  - { offsetInCU: 0xF0F8, offset: 0xF0F8, size: 0x8, addend: 0x0, symName: __ZNSt3__16chrono8durationIxNS_5ratioILl1ELl1000000000EEEEC1B8ue170006IxEERKT_PNS_9enable_ifIXaasr14is_convertibleIS8_xEE5valueooL_ZNS_17integral_constantIbLb0EE5valueEEntsr23treat_as_floating_pointIS6_EE5valueEvE4typeE, symObjAddr: 0x10970, symBinAddr: 0x10001227C, symSize: 0x3C }
  - { offsetInCU: 0xF145, offset: 0xF145, size: 0x8, addend: 0x0, symName: __ZNSt3__16chrono8durationIxNS_5ratioILl1ELl1000000000EEEEC2B8ue170006IxEERKT_PNS_9enable_ifIXaasr14is_convertibleIS8_xEE5valueooL_ZNS_17integral_constantIbLb0EE5valueEEntsr23treat_as_floating_pointIS6_EE5valueEvE4typeE, symObjAddr: 0x109AC, symBinAddr: 0x1000122B8, symSize: 0x28 }
  - { offsetInCU: 0xF192, offset: 0xF192, size: 0x8, addend: 0x0, symName: __ZNKSt3__16chrono8durationIxNS_5ratioILl1ELl1000000000EEEE5countB8ue170006Ev, symObjAddr: 0x10A40, symBinAddr: 0x10001234C, symSize: 0x18 }
  - { offsetInCU: 0xF1B8, offset: 0xF1B8, size: 0x8, addend: 0x0, symName: __ZNSt3__16chrono8durationIxNS_5ratioILl1ELl1000000000EEEEC1B8ue170006IxNS2_ILl1ELl1000EEEEERKNS1_IT_T0_EEPNS_9enable_ifIXaasr13__no_overflowIS8_S3_EE5valueooL_ZNS_17integral_constantIbLb0EE5valueEEaaeqsr13__no_overflowIS8_S3_E4typeE3denLi1Entsr23treat_as_floating_pointIS7_EE5valueEvE4typeE, symObjAddr: 0x10A58, symBinAddr: 0x100012364, symSize: 0x3C }
  - { offsetInCU: 0xF20F, offset: 0xF20F, size: 0x8, addend: 0x0, symName: __ZNSt3__16chrono8durationIxNS_5ratioILl1ELl1000000000EEEEC2B8ue170006IxNS2_ILl1ELl1000EEEEERKNS1_IT_T0_EEPNS_9enable_ifIXaasr13__no_overflowIS8_S3_EE5valueooL_ZNS_17integral_constantIbLb0EE5valueEEaaeqsr13__no_overflowIS8_S3_E4typeE3denLi1Entsr23treat_as_floating_pointIS7_EE5valueEvE4typeE, symObjAddr: 0x10A94, symBinAddr: 0x1000123A0, symSize: 0x50 }
  - { offsetInCU: 0xF266, offset: 0xF266, size: 0x8, addend: 0x0, symName: __ZNSt3__16chrono15duration_valuesIxE3maxB8ue170006Ev, symObjAddr: 0x10AE4, symBinAddr: 0x1000123F0, symSize: 0x14 }
  - { offsetInCU: 0xF27A, offset: 0xF27A, size: 0x8, addend: 0x0, symName: __ZNSt3__114numeric_limitsIxE3maxB8ue170006Ev, symObjAddr: 0x10AF8, symBinAddr: 0x100012404, symSize: 0x14 }
  - { offsetInCU: 0xF28E, offset: 0xF28E, size: 0x8, addend: 0x0, symName: __ZNSt3__123__libcpp_numeric_limitsIxLb1EE3maxB8ue170006Ev, symObjAddr: 0x10B0C, symBinAddr: 0x100012418, symSize: 0x8 }
  - { offsetInCU: 0xF2A2, offset: 0xF2A2, size: 0x8, addend: 0x0, symName: __ZNSt3__19basic_iosIcNS_11char_traitsIcEEEC2B8ue170006Ev, symObjAddr: 0x10B14, symBinAddr: 0x100012420, symSize: 0x44 }
  - { offsetInCU: 0xF2CC, offset: 0xF2CC, size: 0x8, addend: 0x0, symName: __ZNSt3__114basic_iostreamIcNS_11char_traitsIcEEEC2B8ue170006EPNS_15basic_streambufIcS2_EE, symObjAddr: 0x10B58, symBinAddr: 0x100012464, symSize: 0xB4 }
  - { offsetInCU: 0xF312, offset: 0xF312, size: 0x8, addend: 0x0, symName: __ZNSt3__18ios_baseC2B8ue170006Ev, symObjAddr: 0x10C0C, symBinAddr: 0x100012518, symSize: 0x24 }
  - { offsetInCU: 0xF33C, offset: 0xF33C, size: 0x8, addend: 0x0, symName: __ZNSt3__113basic_istreamIcNS_11char_traitsIcEEEC2B8ue170006EPNS_15basic_streambufIcS2_EE, symObjAddr: 0x10C30, symBinAddr: 0x10001253C, symSize: 0x64 }
  - { offsetInCU: 0xF381, offset: 0xF381, size: 0x8, addend: 0x0, symName: __ZNSt3__113basic_ostreamIcNS_11char_traitsIcEEEC2B8ue170006Ev, symObjAddr: 0x10C94, symBinAddr: 0x1000125A0, symSize: 0x34 }
  - { offsetInCU: 0xF3B8, offset: 0xF3B8, size: 0x8, addend: 0x0, symName: __ZNSt3__19basic_iosIcNS_11char_traitsIcEEE4initB8ue170006EPNS_15basic_streambufIcS2_EE, symObjAddr: 0x10CC8, symBinAddr: 0x1000125D4, symSize: 0x44 }
  - { offsetInCU: 0xF3EF, offset: 0xF3EF, size: 0x8, addend: 0x0, symName: __ZNSt3__113basic_ostreamIcNS_11char_traitsIcEEEC2B8ue170006EPNS_15basic_streambufIcS2_EE, symObjAddr: 0x10D0C, symBinAddr: 0x100012618, symSize: 0x60 }
...
